target datalayout = "e-m:e-p270:32:32-p271:32:32-p272:64:64-i64:64-i128:128-f80:128-n8:16:32:64-S128"
target triple = "x86_64-pc-linux-gnu"

; Function Attrs: nounwind uwtable
define internal i32 @cache_objects(ptr noundef %0, ptr noundef %1, ptr noundef %2, i32 noundef %3, ptr noundef %4, ptr noundef %5) #0 {
  %7 = alloca i32, align 4
  %8 = alloca ptr, align 8
  %9 = alloca ptr, align 8
  %10 = alloca ptr, align 8
  %11 = alloca i32, align 4
  %12 = alloca ptr, align 8
  %13 = alloca ptr, align 8
  %14 = alloca i32, align 4
  %15 = alloca ptr, align 8
  %16 = alloca ptr, align 8
  %17 = alloca i32, align 4
  %18 = alloca ptr, align 8
  %19 = alloca i32, align 4
  store ptr %0, ptr %8, align 8, !tbaa !3
  store ptr %1, ptr %9, align 8, !tbaa !12
  store ptr %2, ptr %10, align 8, !tbaa !24
  store i32 %3, ptr %11, align 4, !tbaa !10
  store ptr %4, ptr %12, align 8, !tbaa !22
  store ptr %5, ptr %13, align 8, !tbaa !12
  call void @llvm.lifetime.start.p0(i64 4, ptr %14) #4
  store i32 0, ptr %14, align 4, !tbaa !10
  call void @llvm.lifetime.start.p0(i64 8, ptr %15) #4
  store ptr null, ptr %15, align 8, !tbaa !32
  call void @llvm.lifetime.start.p0(i64 8, ptr %16) #4
  %20 = load ptr, ptr %8, align 8, !tbaa !3
  %21 = call ptr @X509_LOOKUP_get_store(ptr noundef %20)
  store ptr %21, ptr %16, align 8, !tbaa !34
  %22 = load ptr, ptr %9, align 8, !tbaa !12
  %23 = load ptr, ptr %12, align 8, !tbaa !22
  %24 = load ptr, ptr %13, align 8, !tbaa !12
  %25 = call ptr @OSSL_STORE_open_ex(ptr noundef %22, ptr noundef %23, ptr noundef %24, ptr noundef null, ptr noundef null, ptr noundef null, ptr noundef null, ptr noundef null)
  store ptr %25, ptr %15, align 8, !tbaa !32
  %26 = icmp eq ptr %25, null
  br i1 %26, label %27, label %28

27:                                               ; preds = %6
  store i32 0, ptr %7, align 4
  store i32 1, ptr %17, align 4
  br label %87

28:                                               ; preds = %6
  %29 = load ptr, ptr %10, align 8, !tbaa !24
  %30 = icmp ne ptr %29, null
  br i1 %30, label %31, label %35

31:                                               ; preds = %28
  %32 = load ptr, ptr %15, align 8, !tbaa !32
  %33 = load ptr, ptr %10, align 8, !tbaa !24
  %34 = call i32 @OSSL_STORE_find(ptr noundef %32, ptr noundef %33)
  br label %35

35:                                               ; preds = %31, %28
  br label %36

36:                                               ; preds = %82, %35
  call void @llvm.lifetime.start.p0(i64 8, ptr %18) #4
  %37 = load ptr, ptr %15, align 8, !tbaa !32
  %38 = call ptr @OSSL_STORE_load(ptr noundef %37)
  store ptr %38, ptr %18, align 8, !tbaa !36
  call void @llvm.lifetime.start.p0(i64 4, ptr %19) #4
  %39 = load ptr, ptr %18, align 8, !tbaa !36
  %40 = icmp eq ptr %39, null
  br i1 %40, label %41, label %42

41:                                               ; preds = %36
  store i32 2, ptr %17, align 4
  br label %80

42:                                               ; preds = %36
  %43 = load ptr, ptr %18, align 8, !tbaa !36
  %44 = call i32 @OSSL_STORE_INFO_get_type(ptr noundef %43)
  store i32 %44, ptr %19, align 4, !tbaa !10
  store i32 0, ptr %14, align 4, !tbaa !10
  %45 = load i32, ptr %19, align 4, !tbaa !10
  %46 = icmp eq i32 %45, 1
  br i1 %46, label %47, label %61

47:                                               ; preds = %42
  %48 = load i32, ptr %11, align 4, !tbaa !10
  %49 = icmp sgt i32 %48, 0
  br i1 %49, label %50, label %60

50:                                               ; preds = %47
  %51 = load ptr, ptr %8, align 8, !tbaa !3
  %52 = load ptr, ptr %18, align 8, !tbaa !36
  %53 = call ptr @OSSL_STORE_INFO_get0_NAME(ptr noundef %52)
  %54 = load ptr, ptr %10, align 8, !tbaa !24
  %55 = load i32, ptr %11, align 4, !tbaa !10
  %56 = sub nsw i32 %55, 1
  %57 = load ptr, ptr %12, align 8, !tbaa !22
  %58 = load ptr, ptr %13, align 8, !tbaa !12
  %59 = call i32 @cache_objects(ptr noundef %51, ptr noundef %53, ptr noundef %54, i32 noundef %56, ptr noundef %57, ptr noundef %58)
  store i32 %59, ptr %14, align 4, !tbaa !10
  br label %60

60:                                               ; preds = %50, %47
  br label %74

61:                                               ; preds = %42
  %62 = load i32, ptr %19, align 4, !tbaa !10
  switch i32 %62, label %73 [
    i32 5, label %63
    i32 6, label %68
  ]

63:                                               ; preds = %61
  %64 = load ptr, ptr %16, align 8, !tbaa !34
  %65 = load ptr, ptr %18, align 8, !tbaa !36
  %66 = call ptr @OSSL_STORE_INFO_get0_CERT(ptr noundef %65)
  %67 = call i32 @X509_STORE_add_cert(ptr noundef %64, ptr noundef %66)
  store i32 %67, ptr %14, align 4, !tbaa !10
  br label %73

68:                                               ; preds = %61
  %69 = load ptr, ptr %16, align 8, !tbaa !34
  %70 = load ptr, ptr %18, align 8, !tbaa !36
  %71 = call ptr @OSSL_STORE_INFO_get0_CRL(ptr noundef %70)
  %72 = call i32 @X509_STORE_add_crl(ptr noundef %69, ptr noundef %71)
  store i32 %72, ptr %14, align 4, !tbaa !10
  br label %73

73:                                               ; preds = %61, %68, %63
  br label %74

74:                                               ; preds = %73, %60
  %75 = load ptr, ptr %18, align 8, !tbaa !36
  call void @OSSL_STORE_INFO_free(ptr noundef %75)
  %76 = load i32, ptr %14, align 4, !tbaa !10
  %77 = icmp ne i32 %76, 0
  br i1 %77, label %79, label %78

78:                                               ; preds = %74
  store i32 2, ptr %17, align 4
  br label %80

79:                                               ; preds = %74
  store i32 0, ptr %17, align 4
  br label %80

80:                                               ; preds = %79, %78, %41
  call void @llvm.lifetime.end.p0(i64 4, ptr %19) #4
  call void @llvm.lifetime.end.p0(i64 8, ptr %18) #4
  %81 = load i32, ptr %17, align 4
  switch i32 %81, label %89 [
    i32 0, label %82
    i32 2, label %83
  ]

82:                                               ; preds = %80
  br label %36

83:                                               ; preds = %80
  %84 = load ptr, ptr %15, align 8, !tbaa !32
  %85 = call i32 @OSSL_STORE_close(ptr noundef %84)
  %86 = load i32, ptr %14, align 4, !tbaa !10
  store i32 %86, ptr %7, align 4
  store i32 1, ptr %17, align 4
  br label %87

87:                                               ; preds = %83, %27
  call void @llvm.lifetime.end.p0(i64 8, ptr %16) #4
  call void @llvm.lifetime.end.p0(i64 8, ptr %15) #4
  call void @llvm.lifetime.end.p0(i64 4, ptr %14) #4
  %88 = load i32, ptr %7, align 4
  ret i32 %88

89:                                               ; preds = %80
  unreachable
}