; Function Attrs: nounwind uwtable
define internal fastcc noundef i32 @cache_objects(ptr noundef %0, ptr noundef %1, ptr noundef %2, i32 noundef range(i32 0, 2) %3, ptr noundef %4, ptr noundef %5) unnamed_addr #1 {
  %7 = tail call ptr @X509_LOOKUP_get_store(ptr noundef %0) #3
  %8 = tail call ptr @OSSL_STORE_open_ex(ptr noundef %1, ptr noundef %4, ptr noundef %5, ptr noundef null, ptr noundef null, ptr noundef null, ptr noundef null, ptr noundef null) #3
  %9 = icmp eq ptr %8, null
  br i1 %9, label %44, label %10

10:                                               ; preds = %6
  %.not = icmp eq ptr %2, null
  br i1 %.not, label %13, label %11

11:                                               ; preds = %10
  %12 = tail call i32 @OSSL_STORE_find(ptr noundef nonnull %8, ptr noundef nonnull %2) #3
  br label %13

13:                                               ; preds = %11, %10
  %14 = tail call ptr @OSSL_STORE_load(ptr noundef nonnull %8) #3
  %15 = icmp eq ptr %14, null
  br i1 %15, label %.loopexit, label %.lr.ph

.lr.ph:                                           ; preds = %13
  %.not35 = icmp eq i32 %3, 0
  br i1 %.not35, label %.lr.ph.split.us, label %.lr.ph.split

.lr.ph.split.us:                                  ; preds = %.lr.ph, %18
  %16 = phi ptr [ %19, %18 ], [ %14, %.lr.ph ]
  %17 = tail call i32 @OSSL_STORE_INFO_get_type(ptr noundef nonnull %16) #3
  switch i32 %17, label %.thread [
    i32 6, label %21
    i32 5, label %24
  ]

18:                                               ; preds = %27
  %19 = tail call ptr @OSSL_STORE_load(ptr noundef nonnull %8) #3
  %20 = icmp eq ptr %19, null
  br i1 %20, label %.loopexit, label %.lr.ph.split.us

21:                                               ; preds = %.lr.ph.split.us
  %22 = tail call ptr @OSSL_STORE_INFO_get0_CRL(ptr noundef nonnull %16) #3
  %23 = tail call i32 @X509_STORE_add_crl(ptr noundef %7, ptr noundef %22) #3
  br label %27

24:                                               ; preds = %.lr.ph.split.us
  %25 = tail call ptr @OSSL_STORE_INFO_get0_CERT(ptr noundef nonnull %16) #3
  %26 = tail call i32 @X509_STORE_add_cert(ptr noundef %7, ptr noundef %25) #3
  br label %27

27:                                               ; preds = %24, %21
  %.2.us = phi i32 [ %23, %21 ], [ %26, %24 ]
  %.2.fr.us = freeze i32 %.2.us
  tail call void @OSSL_STORE_INFO_free(ptr noundef nonnull %16) #3
  %.not36.us = icmp eq i32 %.2.fr.us, 0
  br i1 %.not36.us, label %.loopexit, label %18

28:                                               ; preds = %42
  %29 = tail call ptr @OSSL_STORE_load(ptr noundef nonnull %8) #3
  %30 = icmp eq ptr %29, null
  br i1 %30, label %.loopexit, label %.lr.ph.split

.lr.ph.split:                                     ; preds = %.lr.ph, %28
  %31 = phi ptr [ %29, %28 ], [ %14, %.lr.ph ]
  %32 = tail call i32 @OSSL_STORE_INFO_get_type(ptr noundef nonnull %31) #3
  switch i32 %32, label %.thread [
    i32 1, label %33
    i32 5, label %36
    i32 6, label %39
  ]

33:                                               ; preds = %.lr.ph.split
  %34 = tail call ptr @OSSL_STORE_INFO_get0_NAME(ptr noundef nonnull %31) #3
  %35 = tail call fastcc i32 @cache_objects(ptr noundef %0, ptr noundef %34, ptr noundef %2, i32 noundef 0, ptr noundef %4, ptr noundef %5)
  br label %42

36:                                               ; preds = %.lr.ph.split
  %37 = tail call ptr @OSSL_STORE_INFO_get0_CERT(ptr noundef nonnull %31) #3
  %38 = tail call i32 @X509_STORE_add_cert(ptr noundef %7, ptr noundef %37) #3
  br label %42

39:                                               ; preds = %.lr.ph.split
  %40 = tail call ptr @OSSL_STORE_INFO_get0_CRL(ptr noundef nonnull %31) #3
  %41 = tail call i32 @X509_STORE_add_crl(ptr noundef %7, ptr noundef %40) #3
  br label %42

.thread:                                          ; preds = %.lr.ph.split, %.lr.ph.split.us
  %.us-phi = phi ptr [ %16, %.lr.ph.split.us ], [ %31, %.lr.ph.split ]
  tail call void @OSSL_STORE_INFO_free(ptr noundef nonnull %.us-phi) #3
  br label %.loopexit

42:                                               ; preds = %36, %39, %33
  %.2 = phi i32 [ %35, %33 ], [ %41, %39 ], [ %38, %36 ]
  %.2.fr = freeze i32 %.2
  tail call void @OSSL_STORE_INFO_free(ptr noundef nonnull %31) #3
  %.not36 = icmp eq i32 %.2.fr, 0
  br i1 %.not36, label %.loopexit, label %28

.loopexit:                                        ; preds = %28, %42, %18, %27, %13, %.thread
  %.1.ph = phi i32 [ 0, %.thread ], [ 0, %13 ], [ %.2.fr.us, %18 ], [ 0, %27 ], [ %.2.fr, %28 ], [ 0, %42 ]
  %43 = tail call i32 @OSSL_STORE_close(ptr noundef nonnull %8) #3
  br label %44

44:                                               ; preds = %6, %.loopexit
  %.0 = phi i32 [ %.1.ph, %.loopexit ], [ 0, %6 ]
  ret i32 %.0
}